target datalayout = "e-m:e-p270:32:32-p271:32:32-p272:64:64-i64:64-i128:128-f80:128-n8:16:32:64-S128"
target triple = "x86_64-pc-linux-gnu"

%"class.google::protobuf::DescriptorDatabase" = type { ptr }
%"class.google::protobuf::MergedDescriptorDatabase" = type { %"class.google::protobuf::DescriptorDatabase", %"class.std::vector.110" }
%"class.std::vector.110" = type { %"struct.std::_Vector_base.111" }
%"struct.std::_Vector_base.111" = type { %"struct.std::_Vector_base<google::protobuf::DescriptorDatabase *, std::allocator<google::protobuf::DescriptorDatabase *>>::_Vector_impl" }
%"struct.std::_Vector_base<google::protobuf::DescriptorDatabase *, std::allocator<google::protobuf::DescriptorDatabase *>>::_Vector_impl" = type { %"struct.std::_Vector_base<google::protobuf::DescriptorDatabase *, std::allocator<google::protobuf::DescriptorDatabase *>>::_Vector_impl_data" }
%"struct.std::_Vector_base<google::protobuf::DescriptorDatabase *, std::allocator<google::protobuf::DescriptorDatabase *>>::_Vector_impl_data" = type { ptr, ptr, ptr }
%"class.__gnu_cxx::__normal_iterator.115" = type { ptr }

; Function Attrs: mustprogress nounwind uwtable
define linkonce_odr hidden noundef nonnull align 8 dereferenceable(8) ptr @_ZNK9__gnu_cxx17__normal_iteratorIPPN6google8protobuf18DescriptorDatabaseESt6vectorIS4_SaIS4_EEE4baseEv(ptr noundef nonnull align 8 dereferenceable(8) %0) #4 comdat align 2 {
  %2 = alloca ptr, align 8
  store ptr %0, ptr %2, align 8, !tbaa !248
  %3 = load ptr, ptr %2, align 8
  %4 = getelementptr inbounds nuw %"class.__gnu_cxx::__normal_iterator.115", ptr %3, i32 0, i32 0
  ret ptr %4
}

; Function Attrs: mustprogress nounwind uwtable
define linkonce_odr hidden void @_ZN9__gnu_cxx17__normal_iteratorIPPN6google8protobuf18DescriptorDatabaseESt6vectorIS4_SaIS4_EEEC2ERKS5_(ptr noundef nonnull align 8 dereferenceable(8) %0, ptr noundef nonnull align 8 dereferenceable(8) %1) unnamed_addr #4 comdat align 2 {
  %3 = alloca ptr, align 8
  %4 = alloca ptr, align 8
  store ptr %0, ptr %3, align 8, !tbaa !248
  store ptr %1, ptr %4, align 8, !tbaa !908
  %5 = load ptr, ptr %3, align 8
  %6 = getelementptr inbounds nuw %"class.__gnu_cxx::__normal_iterator.115", ptr %5, i32 0, i32 0
  %7 = load ptr, ptr %4, align 8, !tbaa !908
  %8 = load ptr, ptr %7, align 8, !tbaa !242
  store ptr %8, ptr %6, align 8, !tbaa !250
  ret void
}

; Function Attrs: mustprogress nounwind uwtable
define linkonce_odr hidden noundef nonnull align 8 dereferenceable(8) ptr @_ZN9__gnu_cxx17__normal_iteratorIPPN6google8protobuf18DescriptorDatabaseESt6vectorIS4_SaIS4_EEEppEv(ptr noundef nonnull align 8 dereferenceable(8) %0) #4 comdat align 2 {
  %2 = alloca ptr, align 8
  store ptr %0, ptr %2, align 8, !tbaa !248
  %3 = load ptr, ptr %2, align 8
  %4 = getelementptr inbounds nuw %"class.__gnu_cxx::__normal_iterator.115", ptr %3, i32 0, i32 0
  %5 = load ptr, ptr %4, align 8, !tbaa !250
  %6 = getelementptr inbounds nuw ptr, ptr %5, i32 1
  store ptr %6, ptr %4, align 8, !tbaa !250
  ret ptr %3
}

; Function Attrs: mustprogress nounwind uwtable
define linkonce_odr hidden noundef nonnull align 8 dereferenceable(8) ptr @_ZNK9__gnu_cxx17__normal_iteratorIPPN6google8protobuf18DescriptorDatabaseESt6vectorIS4_SaIS4_EEEdeEv(ptr noundef nonnull align 8 dereferenceable(8) %0) #4 comdat align 2 {
  %2 = alloca ptr, align 8
  store ptr %0, ptr %2, align 8, !tbaa !248
  %3 = load ptr, ptr %2, align 8
  %4 = getelementptr inbounds nuw %"class.__gnu_cxx::__normal_iterator.115", ptr %3, i32 0, i32 0
  %5 = load ptr, ptr %4, align 8, !tbaa !250
  ret ptr %5
}

; Function Attrs: inlinehint mustprogress nounwind uwtable
define linkonce_odr hidden noundef zeroext i1 @_ZN9__gnu_cxxneIPPN6google8protobuf18DescriptorDatabaseESt6vectorIS4_SaIS4_EEEEbRKNS_17__normal_iteratorIT_T0_EESE_(ptr noundef nonnull align 8 dereferenceable(8) %0, ptr noundef nonnull align 8 dereferenceable(8) %1) #7 comdat {
  %3 = alloca ptr, align 8
  %4 = alloca ptr, align 8
  store ptr %0, ptr %3, align 8, !tbaa !248
  store ptr %1, ptr %4, align 8, !tbaa !248
  %5 = load ptr, ptr %3, align 8, !tbaa !248
  %6 = call noundef nonnull align 8 dereferenceable(8) ptr @_ZNK9__gnu_cxx17__normal_iteratorIPPN6google8protobuf18DescriptorDatabaseESt6vectorIS4_SaIS4_EEE4baseEv(ptr noundef nonnull align 8 dereferenceable(8) %5) #3
  %7 = load ptr, ptr %6, align 8, !tbaa !242
  %8 = load ptr, ptr %4, align 8, !tbaa !248
  %9 = call noundef nonnull align 8 dereferenceable(8) ptr @_ZNK9__gnu_cxx17__normal_iteratorIPPN6google8protobuf18DescriptorDatabaseESt6vectorIS4_SaIS4_EEE4baseEv(ptr noundef nonnull align 8 dereferenceable(8) %8) #3
  %10 = load ptr, ptr %9, align 8, !tbaa !242
  %11 = icmp ne ptr %7, %10
  ret i1 %11
}

; Function Attrs: mustprogress nounwind uwtable
define linkonce_odr hidden ptr @_ZNSt6vectorIPN6google8protobuf18DescriptorDatabaseESaIS3_EE3endEv(ptr noundef nonnull align 8 dereferenceable(24) %0) #4 comdat align 2 {
  %2 = alloca %"class.__gnu_cxx::__normal_iterator.115", align 8
  %3 = alloca ptr, align 8
  store ptr %0, ptr %3, align 8, !tbaa !240
  %4 = load ptr, ptr %3, align 8
  %5 = getelementptr inbounds nuw %"struct.std::_Vector_base.111", ptr %4, i32 0, i32 0
  %6 = getelementptr inbounds nuw %"struct.std::_Vector_base<google::protobuf::DescriptorDatabase *, std::allocator<google::protobuf::DescriptorDatabase *>>::_Vector_impl_data", ptr %5, i32 0, i32 1
  call void @_ZN9__gnu_cxx17__normal_iteratorIPPN6google8protobuf18DescriptorDatabaseESt6vectorIS4_SaIS4_EEEC2ERKS5_(ptr noundef nonnull align 8 dereferenceable(8) %2, ptr noundef nonnull align 8 dereferenceable(8) %6) #3
  %7 = getelementptr inbounds nuw %"class.__gnu_cxx::__normal_iterator.115", ptr %2, i32 0, i32 0
  %8 = load ptr, ptr %7, align 8
  ret ptr %8
}

; Function Attrs: mustprogress nounwind uwtable
define linkonce_odr hidden ptr @_ZNSt6vectorIPN6google8protobuf18DescriptorDatabaseESaIS3_EE5beginEv(ptr noundef nonnull align 8 dereferenceable(24) %0) #4 comdat align 2 {
  %2 = alloca %"class.__gnu_cxx::__normal_iterator.115", align 8
  %3 = alloca ptr, align 8
  store ptr %0, ptr %3, align 8, !tbaa !240
  %4 = load ptr, ptr %3, align 8
  %5 = getelementptr inbounds nuw %"struct.std::_Vector_base.111", ptr %4, i32 0, i32 0
  %6 = getelementptr inbounds nuw %"struct.std::_Vector_base<google::protobuf::DescriptorDatabase *, std::allocator<google::protobuf::DescriptorDatabase *>>::_Vector_impl_data", ptr %5, i32 0, i32 0
  call void @_ZN9__gnu_cxx17__normal_iteratorIPPN6google8protobuf18DescriptorDatabaseESt6vectorIS4_SaIS4_EEEC2ERKS5_(ptr noundef nonnull align 8 dereferenceable(8) %2, ptr noundef nonnull align 8 dereferenceable(8) %6) #3
  %7 = getelementptr inbounds nuw %"class.__gnu_cxx::__normal_iterator.115", ptr %2, i32 0, i32 0
  %8 = load ptr, ptr %7, align 8
  ret ptr %8
}

; Function Attrs: mustprogress uwtable
define hidden noundef zeroext i1 @_ZN6google8protobuf24MergedDescriptorDatabase14FindFileByNameERKNSt7__cxx1112basic_stringIcSt11char_traitsIcESaIcEEEPNS0_19FileDescriptorProtoE(ptr noundef nonnull align 8 dereferenceable(32) %0, ptr noundef nonnull align 8 dereferenceable(32) %1, ptr noundef %2) unnamed_addr #6 align 2 {
  %4 = alloca i1, align 1
  %5 = alloca ptr, align 8
  %6 = alloca ptr, align 8
  %7 = alloca ptr, align 8
  %8 = alloca ptr, align 8
  %9 = alloca %"class.__gnu_cxx::__normal_iterator.115", align 8
  %10 = alloca %"class.__gnu_cxx::__normal_iterator.115", align 8
  %11 = alloca i32, align 4
  %12 = alloca ptr, align 8
  store ptr %0, ptr %5, align 8, !tbaa !238
  store ptr %1, ptr %6, align 8, !tbaa !12
  store ptr %2, ptr %7, align 8, !tbaa !24
  %13 = load ptr, ptr %5, align 8
  call void @llvm.lifetime.start.p0(i64 8, ptr %8) #3
  %14 = getelementptr inbounds nuw %"class.google::protobuf::MergedDescriptorDatabase", ptr %13, i32 0, i32 1
  store ptr %14, ptr %8, align 8, !tbaa !240
  call void @llvm.lifetime.start.p0(i64 8, ptr %9) #3
  %15 = load ptr, ptr %8, align 8, !tbaa !240
  %16 = call ptr @_ZNSt6vectorIPN6google8protobuf18DescriptorDatabaseESaIS3_EE5beginEv(ptr noundef nonnull align 8 dereferenceable(24) %15) #3
  %17 = getelementptr inbounds nuw %"class.__gnu_cxx::__normal_iterator.115", ptr %9, i32 0, i32 0
  store ptr %16, ptr %17, align 8
  call void @llvm.lifetime.start.p0(i64 8, ptr %10) #3
  %18 = load ptr, ptr %8, align 8, !tbaa !240
  %19 = call ptr @_ZNSt6vectorIPN6google8protobuf18DescriptorDatabaseESaIS3_EE3endEv(ptr noundef nonnull align 8 dereferenceable(24) %18) #3
  %20 = getelementptr inbounds nuw %"class.__gnu_cxx::__normal_iterator.115", ptr %10, i32 0, i32 0
  store ptr %19, ptr %20, align 8
  br label %21

21:                                               ; preds = %39, %3
  %22 = call noundef zeroext i1 @_ZN9__gnu_cxxneIPPN6google8protobuf18DescriptorDatabaseESt6vectorIS4_SaIS4_EEEEbRKNS_17__normal_iteratorIT_T0_EESE_(ptr noundef nonnull align 8 dereferenceable(8) %9, ptr noundef nonnull align 8 dereferenceable(8) %10) #3
  br i1 %22, label %24, label %23

23:                                               ; preds = %21
  store i32 2, ptr %11, align 4
  br label %41

24:                                               ; preds = %21
  call void @llvm.lifetime.start.p0(i64 8, ptr %12) #3
  %25 = call noundef nonnull align 8 dereferenceable(8) ptr @_ZNK9__gnu_cxx17__normal_iteratorIPPN6google8protobuf18DescriptorDatabaseESt6vectorIS4_SaIS4_EEEdeEv(ptr noundef nonnull align 8 dereferenceable(8) %9) #3
  %26 = load ptr, ptr %25, align 8, !tbaa !3
  store ptr %26, ptr %12, align 8, !tbaa !3
  %27 = load ptr, ptr %12, align 8, !tbaa !3
  %28 = load ptr, ptr %6, align 8, !tbaa !12
  %29 = load ptr, ptr %7, align 8, !tbaa !24
  %30 = load ptr, ptr %27, align 8, !tbaa !10
  %31 = getelementptr inbounds ptr, ptr %30, i64 2
  %32 = load ptr, ptr %31, align 8
  %33 = call noundef zeroext i1 %32(ptr noundef nonnull align 8 dereferenceable(8) %27, ptr noundef nonnull align 8 dereferenceable(32) %28, ptr noundef %29)
  br i1 %33, label %34, label %35

34:                                               ; preds = %24
  store i1 true, ptr %4, align 1
  store i32 1, ptr %11, align 4
  br label %36

35:                                               ; preds = %24
  store i32 0, ptr %11, align 4
  br label %36

36:                                               ; preds = %35, %34
  call void @llvm.lifetime.end.p0(i64 8, ptr %12) #3
  %37 = load i32, ptr %11, align 4
  switch i32 %37, label %41 [
    i32 0, label %38
  ]

38:                                               ; preds = %36
  br label %39

39:                                               ; preds = %38
  %40 = call noundef nonnull align 8 dereferenceable(8) ptr @_ZN9__gnu_cxx17__normal_iteratorIPPN6google8protobuf18DescriptorDatabaseESt6vectorIS4_SaIS4_EEEppEv(ptr noundef nonnull align 8 dereferenceable(8) %9) #3
  br label %21

41:                                               ; preds = %36, %23
  call void @llvm.lifetime.end.p0(i64 8, ptr %10) #3
  call void @llvm.lifetime.end.p0(i64 8, ptr %9) #3
  call void @llvm.lifetime.end.p0(i64 8, ptr %8) #3
  %42 = load i32, ptr %11, align 4
  switch i32 %42, label %46 [
    i32 2, label %43
    i32 1, label %44
  ]

43:                                               ; preds = %41
  store i1 false, ptr %4, align 1
  br label %44

44:                                               ; preds = %43, %41
  %45 = load i1, ptr %4, align 1
  ret i1 %45

46:                                               ; preds = %41
  unreachable
}